target datalayout = "e-m:e-p270:32:32-p271:32:32-p272:64:64-i64:64-i128:128-f80:128-n8:16:32:64-S128"
target triple = "x86_64-pc-linux-gnu"

%struct.ipc_client_connect_options = type { i8, [3 x i8] }
%struct.stat = type { i64, i64, i64, i32, i32, i32, i32, i64, i64, i64, i64, %struct.timespec, %struct.timespec, %struct.timespec, [3 x i64] }
%struct.timespec = type { i64, i64 }
%struct.ipc_client_connection = type { i32 }

; Function Attrs: nounwind uwtable
define dso_local void @ipc_client_close_connection(ptr noundef %0) #0 {
  %2 = alloca ptr, align 8
  store ptr %0, ptr %2, align 8, !tbaa !11
  %3 = load ptr, ptr %2, align 8, !tbaa !11
  %4 = icmp ne ptr %3, null
  br i1 %4, label %6, label %5

5:                                                ; preds = %1
  br label %18

6:                                                ; preds = %1
  %7 = load ptr, ptr %2, align 8, !tbaa !11
  %8 = getelementptr inbounds nuw %struct.ipc_client_connection, ptr %7, i32 0, i32 0
  %9 = load i32, ptr %8, align 4, !tbaa !21
  %10 = icmp ne i32 %9, -1
  br i1 %10, label %11, label %16

11:                                               ; preds = %6
  %12 = load ptr, ptr %2, align 8, !tbaa !11
  %13 = getelementptr inbounds nuw %struct.ipc_client_connection, ptr %12, i32 0, i32 0
  %14 = load i32, ptr %13, align 4, !tbaa !21
  %15 = call i32 @close(i32 noundef %14)
  br label %16

16:                                               ; preds = %11, %6
  %17 = load ptr, ptr %2, align 8, !tbaa !11
  call void @free(ptr noundef %17) #10
  br label %18

18:                                               ; preds = %16, %5
  ret void
}

; Function Attrs: nounwind uwtable
define dso_local i32 @ipc_get_active_state(ptr noundef %0) #0 {
  %2 = alloca i32, align 4
  %3 = alloca ptr, align 8
  %4 = alloca i32, align 4
  %5 = alloca %struct.ipc_client_connect_options, align 4
  %6 = alloca %struct.stat, align 8
  %7 = alloca ptr, align 8
  %8 = alloca i32, align 4
  store ptr %0, ptr %3, align 8, !tbaa !4
  call void @llvm.lifetime.start.p0(i64 4, ptr %4) #10
  store i32 4, ptr %4, align 4, !tbaa !9
  call void @llvm.lifetime.start.p0(i64 4, ptr %5) #10
  call void @llvm.memset.p0.i64(ptr align 4 %5, i8 0, i64 4, i1 false)
  call void @llvm.lifetime.start.p0(i64 144, ptr %6) #10
  call void @llvm.lifetime.start.p0(i64 8, ptr %7) #10
  store ptr null, ptr %7, align 8, !tbaa !11
  %9 = load i8, ptr %5, align 4
  %10 = and i8 %9, -2
  %11 = or i8 %10, 0
  store i8 %11, ptr %5, align 4
  %12 = load i8, ptr %5, align 4
  %13 = and i8 %12, -3
  %14 = or i8 %13, 0
  store i8 %14, ptr %5, align 4
  %15 = load ptr, ptr %3, align 8, !tbaa !4
  %16 = call i32 @lstat64(ptr noundef %15, ptr noundef %6) #10
  %17 = icmp eq i32 %16, -1
  br i1 %17, label %18, label %23

18:                                               ; preds = %1
  %19 = call ptr @__errno_location() #11
  %20 = load i32, ptr %19, align 4, !tbaa !9
  switch i32 %20, label %22 [
    i32 2, label %21
    i32 20, label %21
  ]

21:                                               ; preds = %18, %18
  store i32 1, ptr %2, align 4
  store i32 1, ptr %8, align 4
  br label %34

22:                                               ; preds = %18
  store i32 2, ptr %2, align 4
  store i32 1, ptr %8, align 4
  br label %34

23:                                               ; preds = %1
  %24 = getelementptr inbounds nuw %struct.stat, ptr %6, i32 0, i32 3
  %25 = load i32, ptr %24, align 8, !tbaa !13
  %26 = and i32 %25, 61440
  %27 = icmp ne i32 %26, 49152
  br i1 %27, label %28, label %29

28:                                               ; preds = %23
  store i32 2, ptr %2, align 4
  store i32 1, ptr %8, align 4
  br label %34

29:                                               ; preds = %23
  %30 = load ptr, ptr %3, align 8, !tbaa !4
  %31 = call i32 @ipc_client_try_connect(ptr noundef %30, ptr noundef %5, ptr noundef %7)
  store i32 %31, ptr %4, align 4, !tbaa !9
  %32 = load ptr, ptr %7, align 8, !tbaa !11
  call void @ipc_client_close_connection(ptr noundef %32)
  %33 = load i32, ptr %4, align 4, !tbaa !9
  store i32 %33, ptr %2, align 4
  store i32 1, ptr %8, align 4
  br label %34

34:                                               ; preds = %29, %28, %22, %21
  call void @llvm.lifetime.end.p0(i64 8, ptr %7) #10
  call void @llvm.lifetime.end.p0(i64 144, ptr %6) #10
  call void @llvm.lifetime.end.p0(i64 4, ptr %5) #10
  call void @llvm.lifetime.end.p0(i64 4, ptr %4) #10
  %35 = load i32, ptr %2, align 4
  ret i32 %35
}