; Function Attrs: nounwind uwtable
define dso_local range(i32 0, 5) i32 @ipc_get_active_state(ptr noundef %0) local_unnamed_addr #0 {
  %2 = alloca %struct.ipc_client_connect_options, align 4
  %3 = alloca %struct.stat, align 8
  %4 = alloca ptr, align 8
  call void @llvm.lifetime.start.p0(i64 4, ptr nonnull %2) #13
  store i32 0, ptr %2, align 4
  call void @llvm.lifetime.start.p0(i64 144, ptr nonnull %3) #13
  call void @llvm.lifetime.start.p0(i64 8, ptr nonnull %4) #13
  %5 = call i32 @lstat64(ptr noundef %0, ptr noundef nonnull %3) #13
  %6 = icmp eq i32 %5, -1
  br i1 %6, label %7, label %11

7:                                                ; preds = %1
  %8 = tail call ptr @__errno_location() #14
  %9 = load i32, ptr %8, align 4, !tbaa !4
  %switch.selectcmp.case1 = icmp eq i32 %9, 2
  %switch.selectcmp.case2 = icmp eq i32 %9, 20
  %switch.selectcmp = or i1 %switch.selectcmp.case1, %switch.selectcmp.case2
  %10 = select i1 %switch.selectcmp, i32 1, i32 2
  br label %ipc_client_close_connection.exit

11:                                               ; preds = %1
  %12 = getelementptr inbounds nuw i8, ptr %3, i64 24
  %13 = load i32, ptr %12, align 8, !tbaa !8
  %14 = and i32 %13, 61440
  %.not = icmp eq i32 %14, 49152
  br i1 %.not, label %15, label %ipc_client_close_connection.exit

15:                                               ; preds = %11
  %16 = call i32 @ipc_client_try_connect(ptr noundef %0, ptr noundef nonnull %2, ptr noundef nonnull %4)
  %17 = load ptr, ptr %4, align 8, !tbaa !12
  %.not.i = icmp eq ptr %17, null
  br i1 %.not.i, label %ipc_client_close_connection.exit, label %18

18:                                               ; preds = %15
  %19 = load i32, ptr %17, align 4, !tbaa !15
  %.not5.i = icmp eq i32 %19, -1
  br i1 %.not5.i, label %22, label %20

20:                                               ; preds = %18
  %21 = tail call i32 @close(i32 noundef %19) #13
  br label %22

22:                                               ; preds = %20, %18
  tail call void @free(ptr noundef nonnull %17) #13
  br label %ipc_client_close_connection.exit

ipc_client_close_connection.exit:                 ; preds = %22, %15, %11, %7
  %.0 = phi i32 [ %10, %7 ], [ 2, %11 ], [ %16, %15 ], [ %16, %22 ]
  call void @llvm.lifetime.end.p0(i64 8, ptr nonnull %4) #13
  call void @llvm.lifetime.end.p0(i64 144, ptr nonnull %3) #13
  call void @llvm.lifetime.end.p0(i64 4, ptr nonnull %2) #13
  ret i32 %.0
}